target datalayout = "e-m:e-p270:32:32-p271:32:32-p272:64:64-i64:64-i128:128-f80:128-n8:16:32:64-S128"
target triple = "x86_64-pc-linux-gnu"

%"class.o3dgc::Arithmetic_Codec" = type <{ ptr, ptr, ptr, i32, i32, i32, i32, i32, [4 x i8] }>

; Function Attrs: mustprogress uwtable
define hidden void @_ZN5o3dgc16Arithmetic_CodecC2EjPh(ptr noundef nonnull align 8 dereferenceable(44) %0, i32 noundef %1, ptr noundef %2) unnamed_addr #0 align 2 {
  %4 = alloca ptr, align 8
  %5 = alloca i32, align 4
  %6 = alloca ptr, align 8
  store ptr %0, ptr %4, align 8
  store i32 %1, ptr %5, align 4
  store ptr %2, ptr %6, align 8
  %7 = load ptr, ptr %4, align 8
  %8 = getelementptr inbounds nuw %"class.o3dgc::Arithmetic_Codec", ptr %7, i32 0, i32 6
  store i32 0, ptr %8, align 4
  %9 = getelementptr inbounds nuw %"class.o3dgc::Arithmetic_Codec", ptr %7, i32 0, i32 7
  store i32 0, ptr %9, align 8
  %10 = getelementptr inbounds nuw %"class.o3dgc::Arithmetic_Codec", ptr %7, i32 0, i32 0
  store ptr null, ptr %10, align 8
  %11 = getelementptr inbounds nuw %"class.o3dgc::Arithmetic_Codec", ptr %7, i32 0, i32 1
  store ptr null, ptr %11, align 8
  %12 = load i32, ptr %5, align 4
  %13 = load ptr, ptr %6, align 8
  call void @_ZN5o3dgc16Arithmetic_Codec10set_bufferEjPh(ptr noundef nonnull align 8 dereferenceable(44) %7, i32 noundef %12, ptr noundef %13)
  ret void
}