; Function Attrs: mustprogress uwtable
define hidden void @_ZN5o3dgc16Arithmetic_CodecC2EjPh(ptr noundef nonnull align 8 captures(none) dereferenceable(44) initializes((0, 16), (36, 44)) %0, i32 noundef %1, ptr noundef %2) unnamed_addr #5 align 2 {
  %4 = getelementptr inbounds nuw i8, ptr %0, i64 36
  store i32 0, ptr %4, align 4
  %5 = getelementptr inbounds nuw i8, ptr %0, i64 40
  store i32 0, ptr %5, align 8
  tail call void @llvm.memset.p0.i64(ptr noundef nonnull align 8 dereferenceable(16) %0, i8 0, i64 16, i1 false)
  tail call void @_ZN5o3dgc16Arithmetic_Codec10set_bufferEjPh(ptr noundef nonnull align 8 dereferenceable(44) %0, i32 noundef %1, ptr noundef %2)
  ret void
}